; Function Attrs: mustprogress nounwind uwtable
define void @_ZN6casadi17LinearInterpolantD2Ev(ptr noundef nonnull align 8 dereferenceable(1456) %0) unnamed_addr #3 align 2 personality ptr @__gxx_personality_v0 {
  store ptr getelementptr inbounds ({ [113 x ptr], [3 x ptr] }, ptr @_ZTVN6casadi17LinearInterpolantE, i64 0, i32 0, i64 2), ptr %0, align 8
  %2 = getelementptr inbounds i8, ptr %0, i64 1304
  store ptr getelementptr inbounds ({ [113 x ptr], [3 x ptr] }, ptr @_ZTVN6casadi17LinearInterpolantE, i64 0, i32 1, i64 2), ptr %2, align 8
  invoke void @_ZN6casadi13ProtoFunction9clear_memEv(ptr noundef nonnull align 8 dereferenceable(168) %0)
          to label %3 unwind label %7

3:                                                ; preds = %1
  %4 = getelementptr inbounds i8, ptr %0, i64 1432
  %5 = load ptr, ptr %4, align 8
  %.not.i.i.i = icmp eq ptr %5, null
  br i1 %.not.i.i.i, label %_ZNSt6vectorIxSaIxEED2Ev.exit, label %6

6:                                                ; preds = %3
  tail call void @_ZdlPv(ptr noundef nonnull %5) #22
  br label %_ZNSt6vectorIxSaIxEED2Ev.exit

_ZNSt6vectorIxSaIxEED2Ev.exit:                    ; preds = %3, %6
  tail call void @_ZN6casadi11InterpolantD2Ev(ptr noundef nonnull align 8 dereferenceable(1432) %0) #20
  ret void

7:                                                ; preds = %1
  %8 = landingpad { ptr, i32 }
          catch ptr null
  %9 = extractvalue { ptr, i32 } %8, 0
  tail call void @__clang_call_terminate(ptr %9) #24
  unreachable
}